target datalayout = "e-m:e-p270:32:32-p271:32:32-p272:64:64-i64:64-i128:128-f80:128-n8:16:32:64-S128"
target triple = "x86_64-pc-linux-gnu"

%struct.opj_jp2 = type { ptr, ptr, ptr, i32, i32, i32, i32, i32, i32, i32, i32, i32, i32, i32, i32, i32, i32, ptr, ptr, i64, i64, i32, i32, i32, %struct.opj_jp2_color, i32, i8, i8 }
%struct.opj_jp2_color = type { ptr, i32, ptr, ptr, i8 }
%struct.opj_image = type { i32, i32, i32, i32, i32, i32, ptr, ptr, i32 }

@.str.8 = private unnamed_addr constant [29 x i8] c"JP2H box missing. Required.\0A\00", align 1
@.str.9 = private unnamed_addr constant [29 x i8] c"IHDR box_missing. Required.\0A\00", align 1

; Function Attrs: nounwind uwtable
define internal i32 @opj_jp2_exec(ptr noundef %0, ptr noundef %1, ptr noundef %2, ptr noundef %3) #0 {
  %5 = alloca ptr, align 8
  %6 = alloca ptr, align 8
  %7 = alloca ptr, align 8
  %8 = alloca ptr, align 8
  %9 = alloca ptr, align 8
  %10 = alloca i32, align 4
  %11 = alloca i32, align 4
  %12 = alloca i32, align 4
  store ptr %0, ptr %5, align 8, !tbaa !3
  store ptr %1, ptr %6, align 8, !tbaa !92
  store ptr %2, ptr %7, align 8, !tbaa !8
  store ptr %3, ptr %8, align 8, !tbaa !12
  call void @llvm.lifetime.start.p0(i64 8, ptr %9) #5
  store ptr null, ptr %9, align 8, !tbaa !93
  call void @llvm.lifetime.start.p0(i64 4, ptr %10) #5
  store i32 1, ptr %10, align 4, !tbaa !39
  call void @llvm.lifetime.start.p0(i64 4, ptr %11) #5
  call void @llvm.lifetime.start.p0(i64 4, ptr %12) #5
  %13 = load ptr, ptr %6, align 8, !tbaa !92
  %14 = call i32 @opj_procedure_list_get_nb_procedures(ptr noundef %13)
  store i32 %14, ptr %11, align 4, !tbaa !39
  %15 = load ptr, ptr %6, align 8, !tbaa !92
  %16 = call ptr @opj_procedure_list_get_first_procedure(ptr noundef %15)
  store ptr %16, ptr %9, align 8, !tbaa !93
  store i32 0, ptr %12, align 4, !tbaa !39
  br label %17

17:                                               ; preds = %37, %4
  %18 = load i32, ptr %12, align 4, !tbaa !39
  %19 = load i32, ptr %11, align 4, !tbaa !39
  %20 = icmp ult i32 %18, %19
  br i1 %20, label %21, label %40

21:                                               ; preds = %17
  %22 = load i32, ptr %10, align 4, !tbaa !39
  %23 = icmp ne i32 %22, 0
  br i1 %23, label %24, label %32

24:                                               ; preds = %21
  %25 = load ptr, ptr %9, align 8, !tbaa !93
  %26 = load ptr, ptr %25, align 8, !tbaa !95
  %27 = load ptr, ptr %5, align 8, !tbaa !3
  %28 = load ptr, ptr %7, align 8, !tbaa !8
  %29 = load ptr, ptr %8, align 8, !tbaa !12
  %30 = call i32 %26(ptr noundef %27, ptr noundef %28, ptr noundef %29)
  %31 = icmp ne i32 %30, 0
  br label %32

32:                                               ; preds = %24, %21
  %33 = phi i1 [ false, %21 ], [ %31, %24 ]
  %34 = zext i1 %33 to i32
  store i32 %34, ptr %10, align 4, !tbaa !39
  %35 = load ptr, ptr %9, align 8, !tbaa !93
  %36 = getelementptr inbounds nuw ptr, ptr %35, i32 1
  store ptr %36, ptr %9, align 8, !tbaa !93
  br label %37

37:                                               ; preds = %32
  %38 = load i32, ptr %12, align 4, !tbaa !39
  %39 = add i32 %38, 1
  store i32 %39, ptr %12, align 4, !tbaa !39
  br label %17, !llvm.loop !96

40:                                               ; preds = %17
  %41 = load ptr, ptr %6, align 8, !tbaa !92
  call void @opj_procedure_list_clear(ptr noundef %41)
  %42 = load i32, ptr %10, align 4, !tbaa !39
  call void @llvm.lifetime.end.p0(i64 4, ptr %12) #5
  call void @llvm.lifetime.end.p0(i64 4, ptr %11) #5
  call void @llvm.lifetime.end.p0(i64 4, ptr %10) #5
  call void @llvm.lifetime.end.p0(i64 8, ptr %9) #5
  ret i32 %42
}

; Function Attrs: nounwind uwtable
define internal i32 @opj_jp2_setup_header_reading(ptr noundef %0, ptr noundef %1) #0 {
  %3 = alloca i32, align 4
  %4 = alloca ptr, align 8
  %5 = alloca ptr, align 8
  store ptr %0, ptr %4, align 8, !tbaa !3
  store ptr %1, ptr %5, align 8, !tbaa !12
  %6 = load ptr, ptr %4, align 8, !tbaa !3
  %7 = getelementptr inbounds nuw %struct.opj_jp2, ptr %6, i32 0, i32 2
  %8 = load ptr, ptr %7, align 8, !tbaa !91
  %9 = load ptr, ptr %5, align 8, !tbaa !12
  %10 = call i32 @opj_procedure_list_add_procedure(ptr noundef %8, ptr noundef @opj_jp2_read_header_procedure, ptr noundef %9)
  %11 = icmp ne i32 %10, 0
  br i1 %11, label %13, label %12

12:                                               ; preds = %2
  store i32 0, ptr %3, align 4
  br label %14

13:                                               ; preds = %2
  store i32 1, ptr %3, align 4
  br label %14

14:                                               ; preds = %13, %12
  %15 = load i32, ptr %3, align 4
  ret i32 %15
}

; Function Attrs: nounwind uwtable
define internal i32 @opj_jp2_setup_decoding_validation(ptr noundef %0, ptr noundef %1) #0 {
  %3 = alloca ptr, align 8
  %4 = alloca ptr, align 8
  store ptr %0, ptr %3, align 8, !tbaa !3
  store ptr %1, ptr %4, align 8, !tbaa !12
  ret i32 1
}

; Function Attrs: nounwind uwtable
define hidden i32 @opj_jp2_read_header(ptr noundef %0, ptr noundef %1, ptr noundef %2, ptr noundef %3) #0 {
  %5 = alloca i32, align 4
  %6 = alloca ptr, align 8
  %7 = alloca ptr, align 8
  %8 = alloca ptr, align 8
  %9 = alloca ptr, align 8
  %10 = alloca i32, align 4
  %11 = alloca i32, align 4
  store ptr %0, ptr %6, align 8, !tbaa !8
  store ptr %1, ptr %7, align 8, !tbaa !3
  store ptr %2, ptr %8, align 8, !tbaa !98
  store ptr %3, ptr %9, align 8, !tbaa !12
  call void @llvm.lifetime.start.p0(i64 4, ptr %10) #5
  %12 = load ptr, ptr %7, align 8, !tbaa !3
  %13 = load ptr, ptr %9, align 8, !tbaa !12
  %14 = call i32 @opj_jp2_setup_decoding_validation(ptr noundef %12, ptr noundef %13)
  %15 = icmp ne i32 %14, 0
  br i1 %15, label %17, label %16

16:                                               ; preds = %4
  store i32 0, ptr %5, align 4
  store i32 1, ptr %11, align 4
  br label %155

17:                                               ; preds = %4
  %18 = load ptr, ptr %7, align 8, !tbaa !3
  %19 = load ptr, ptr %9, align 8, !tbaa !12
  %20 = call i32 @opj_jp2_setup_header_reading(ptr noundef %18, ptr noundef %19)
  %21 = icmp ne i32 %20, 0
  br i1 %21, label %23, label %22

22:                                               ; preds = %17
  store i32 0, ptr %5, align 4
  store i32 1, ptr %11, align 4
  br label %155

23:                                               ; preds = %17
  %24 = load ptr, ptr %7, align 8, !tbaa !3
  %25 = load ptr, ptr %7, align 8, !tbaa !3
  %26 = getelementptr inbounds nuw %struct.opj_jp2, ptr %25, i32 0, i32 1
  %27 = load ptr, ptr %26, align 8, !tbaa !97
  %28 = load ptr, ptr %6, align 8, !tbaa !8
  %29 = load ptr, ptr %9, align 8, !tbaa !12
  %30 = call i32 @opj_jp2_exec(ptr noundef %24, ptr noundef %27, ptr noundef %28, ptr noundef %29)
  %31 = icmp ne i32 %30, 0
  br i1 %31, label %33, label %32

32:                                               ; preds = %23
  store i32 0, ptr %5, align 4
  store i32 1, ptr %11, align 4
  br label %155

33:                                               ; preds = %23
  %34 = load ptr, ptr %7, align 8, !tbaa !3
  %35 = load ptr, ptr %7, align 8, !tbaa !3
  %36 = getelementptr inbounds nuw %struct.opj_jp2, ptr %35, i32 0, i32 2
  %37 = load ptr, ptr %36, align 8, !tbaa !91
  %38 = load ptr, ptr %6, align 8, !tbaa !8
  %39 = load ptr, ptr %9, align 8, !tbaa !12
  %40 = call i32 @opj_jp2_exec(ptr noundef %34, ptr noundef %37, ptr noundef %38, ptr noundef %39)
  %41 = icmp ne i32 %40, 0
  br i1 %41, label %43, label %42

42:                                               ; preds = %33
  store i32 0, ptr %5, align 4
  store i32 1, ptr %11, align 4
  br label %155

43:                                               ; preds = %33
  %44 = load ptr, ptr %7, align 8, !tbaa !3
  %45 = getelementptr inbounds nuw %struct.opj_jp2, ptr %44, i32 0, i32 26
  %46 = load i8, ptr %45, align 4, !tbaa !100
  %47 = zext i8 %46 to i32
  %48 = icmp eq i32 %47, 0
  br i1 %48, label %49, label %52

49:                                               ; preds = %43
  %50 = load ptr, ptr %9, align 8, !tbaa !12
  %51 = call i32 (ptr, i32, ptr, ...) @opj_event_msg(ptr noundef %50, i32 noundef 1, ptr noundef @.str.8)
  store i32 0, ptr %5, align 4
  store i32 1, ptr %11, align 4
  br label %155

52:                                               ; preds = %43
  %53 = load ptr, ptr %7, align 8, !tbaa !3
  %54 = getelementptr inbounds nuw %struct.opj_jp2, ptr %53, i32 0, i32 27
  %55 = load i8, ptr %54, align 1, !tbaa !101
  %56 = zext i8 %55 to i32
  %57 = icmp eq i32 %56, 0
  br i1 %57, label %58, label %61

58:                                               ; preds = %52
  %59 = load ptr, ptr %9, align 8, !tbaa !12
  %60 = call i32 (ptr, i32, ptr, ...) @opj_event_msg(ptr noundef %59, i32 noundef 1, ptr noundef @.str.9)
  store i32 0, ptr %5, align 4
  store i32 1, ptr %11, align 4
  br label %155

61:                                               ; preds = %52
  %62 = load ptr, ptr %6, align 8, !tbaa !8
  %63 = load ptr, ptr %7, align 8, !tbaa !3
  %64 = getelementptr inbounds nuw %struct.opj_jp2, ptr %63, i32 0, i32 0
  %65 = load ptr, ptr %64, align 8, !tbaa !14
  %66 = load ptr, ptr %8, align 8, !tbaa !98
  %67 = load ptr, ptr %9, align 8, !tbaa !12
  %68 = call i32 @opj_j2k_read_header(ptr noundef %62, ptr noundef %65, ptr noundef %66, ptr noundef %67)
  store i32 %68, ptr %10, align 4, !tbaa !39
  %69 = load ptr, ptr %8, align 8, !tbaa !98
  %70 = icmp ne ptr %69, null
  br i1 %70, label %71, label %153

71:                                               ; preds = %61
  %72 = load ptr, ptr %8, align 8, !tbaa !98
  %73 = load ptr, ptr %72, align 8, !tbaa !10
  %74 = icmp ne ptr %73, null
  br i1 %74, label %75, label %153

75:                                               ; preds = %71
  %76 = load ptr, ptr %7, align 8, !tbaa !3
  %77 = getelementptr inbounds nuw %struct.opj_jp2, ptr %76, i32 0, i32 12
  %78 = load i32, ptr %77, align 4, !tbaa !72
  %79 = icmp eq i32 %78, 16
  br i1 %79, label %80, label %84

80:                                               ; preds = %75
  %81 = load ptr, ptr %8, align 8, !tbaa !98
  %82 = load ptr, ptr %81, align 8, !tbaa !10
  %83 = getelementptr inbounds nuw %struct.opj_image, ptr %82, i32 0, i32 5
  store i32 1, ptr %83, align 4, !tbaa !73
  br label %128

84:                                               ; preds = %75
  %85 = load ptr, ptr %7, align 8, !tbaa !3
  %86 = getelementptr inbounds nuw %struct.opj_jp2, ptr %85, i32 0, i32 12
  %87 = load i32, ptr %86, align 4, !tbaa !72
  %88 = icmp eq i32 %87, 17
  br i1 %88, label %89, label %93

89:                                               ; preds = %84
  %90 = load ptr, ptr %8, align 8, !tbaa !98
  %91 = load ptr, ptr %90, align 8, !tbaa !10
  %92 = getelementptr inbounds nuw %struct.opj_image, ptr %91, i32 0, i32 5
  store i32 2, ptr %92, align 4, !tbaa !73
  br label %127

93:                                               ; preds = %84
  %94 = load ptr, ptr %7, align 8, !tbaa !3
  %95 = getelementptr inbounds nuw %struct.opj_jp2, ptr %94, i32 0, i32 12
  %96 = load i32, ptr %95, align 4, !tbaa !72
  %97 = icmp eq i32 %96, 18
  br i1 %97, label %98, label %102

98:                                               ; preds = %93
  %99 = load ptr, ptr %8, align 8, !tbaa !98
  %100 = load ptr, ptr %99, align 8, !tbaa !10
  %101 = getelementptr inbounds nuw %struct.opj_image, ptr %100, i32 0, i32 5
  store i32 3, ptr %101, align 4, !tbaa !73
  br label %126

102:                                              ; preds = %93
  %103 = load ptr, ptr %7, align 8, !tbaa !3
  %104 = getelementptr inbounds nuw %struct.opj_jp2, ptr %103, i32 0, i32 12
  %105 = load i32, ptr %104, align 4, !tbaa !72
  %106 = icmp eq i32 %105, 24
  br i1 %106, label %107, label %111

107:                                              ; preds = %102
  %108 = load ptr, ptr %8, align 8, !tbaa !98
  %109 = load ptr, ptr %108, align 8, !tbaa !10
  %110 = getelementptr inbounds nuw %struct.opj_image, ptr %109, i32 0, i32 5
  store i32 4, ptr %110, align 4, !tbaa !73
  br label %125

111:                                              ; preds = %102
  %112 = load ptr, ptr %7, align 8, !tbaa !3
  %113 = getelementptr inbounds nuw %struct.opj_jp2, ptr %112, i32 0, i32 12
  %114 = load i32, ptr %113, align 4, !tbaa !72
  %115 = icmp eq i32 %114, 12
  br i1 %115, label %116, label %120

116:                                              ; preds = %111
  %117 = load ptr, ptr %8, align 8, !tbaa !98
  %118 = load ptr, ptr %117, align 8, !tbaa !10
  %119 = getelementptr inbounds nuw %struct.opj_image, ptr %118, i32 0, i32 5
  store i32 5, ptr %119, align 4, !tbaa !73
  br label %124

120:                                              ; preds = %111
  %121 = load ptr, ptr %8, align 8, !tbaa !98
  %122 = load ptr, ptr %121, align 8, !tbaa !10
  %123 = getelementptr inbounds nuw %struct.opj_image, ptr %122, i32 0, i32 5
  store i32 -1, ptr %123, align 4, !tbaa !73
  br label %124

124:                                              ; preds = %120, %116
  br label %125

125:                                              ; preds = %124, %107
  br label %126

126:                                              ; preds = %125, %98
  br label %127

127:                                              ; preds = %126, %89
  br label %128

128:                                              ; preds = %127, %80
  %129 = load ptr, ptr %7, align 8, !tbaa !3
  %130 = getelementptr inbounds nuw %struct.opj_jp2, ptr %129, i32 0, i32 24
  %131 = getelementptr inbounds nuw %struct.opj_jp2_color, ptr %130, i32 0, i32 0
  %132 = load ptr, ptr %131, align 8, !tbaa !102
  %133 = icmp ne ptr %132, null
  br i1 %133, label %134, label %152

134:                                              ; preds = %128
  %135 = load ptr, ptr %7, align 8, !tbaa !3
  %136 = getelementptr inbounds nuw %struct.opj_jp2, ptr %135, i32 0, i32 24
  %137 = getelementptr inbounds nuw %struct.opj_jp2_color, ptr %136, i32 0, i32 0
  %138 = load ptr, ptr %137, align 8, !tbaa !102
  %139 = load ptr, ptr %8, align 8, !tbaa !98
  %140 = load ptr, ptr %139, align 8, !tbaa !10
  %141 = getelementptr inbounds nuw %struct.opj_image, ptr %140, i32 0, i32 7
  store ptr %138, ptr %141, align 8, !tbaa !103
  %142 = load ptr, ptr %7, align 8, !tbaa !3
  %143 = getelementptr inbounds nuw %struct.opj_jp2, ptr %142, i32 0, i32 24
  %144 = getelementptr inbounds nuw %struct.opj_jp2_color, ptr %143, i32 0, i32 1
  %145 = load i32, ptr %144, align 8, !tbaa !104
  %146 = load ptr, ptr %8, align 8, !tbaa !98
  %147 = load ptr, ptr %146, align 8, !tbaa !10
  %148 = getelementptr inbounds nuw %struct.opj_image, ptr %147, i32 0, i32 8
  store i32 %145, ptr %148, align 8, !tbaa !70
  %149 = load ptr, ptr %7, align 8, !tbaa !3
  %150 = getelementptr inbounds nuw %struct.opj_jp2, ptr %149, i32 0, i32 24
  %151 = getelementptr inbounds nuw %struct.opj_jp2_color, ptr %150, i32 0, i32 0
  store ptr null, ptr %151, align 8, !tbaa !102
  br label %152

152:                                              ; preds = %134, %128
  br label %153

153:                                              ; preds = %152, %71, %61
  %154 = load i32, ptr %10, align 4, !tbaa !39
  store i32 %154, ptr %5, align 4
  store i32 1, ptr %11, align 4
  br label %155

155:                                              ; preds = %153, %58, %49, %42, %32, %22, %16
  call void @llvm.lifetime.end.p0(i64 4, ptr %10) #5
  %156 = load i32, ptr %5, align 4
  ret i32 %156
}