; Function Attrs: nounwind uwtable
define hidden i32 @opj_jp2_read_header(ptr noundef %0, ptr noundef %1, ptr noundef %2, ptr noundef %3) local_unnamed_addr #0 {
  %5 = getelementptr i8, ptr %1, i64 16
  %.val = load ptr, ptr %5, align 8, !tbaa !110
  %6 = tail call i32 @opj_procedure_list_add_procedure(ptr noundef %.val, ptr noundef nonnull @opj_jp2_read_header_procedure, ptr noundef %3) #6
  %.not.i.not = icmp eq i32 %6, 0
  br i1 %.not.i.not, label %68, label %7

7:                                                ; preds = %4
  %8 = getelementptr inbounds nuw i8, ptr %1, i64 8
  %9 = load ptr, ptr %8, align 8, !tbaa !113
  %10 = tail call i32 @opj_procedure_list_get_nb_procedures(ptr noundef %9) #6
  %11 = tail call ptr @opj_procedure_list_get_first_procedure(ptr noundef %9) #6
  %.not17.i = icmp eq i32 %10, 0
  br i1 %.not17.i, label %opj_jp2_exec.exit.thread, label %.lr.ph.i

opj_jp2_exec.exit.thread:                         ; preds = %7
  tail call void @opj_procedure_list_clear(ptr noundef %9) #6
  br label %21

.lr.ph.i:                                         ; preds = %7, %17
  %.016.i = phi i32 [ %20, %17 ], [ 0, %7 ]
  %.01215.i = phi ptr [ %19, %17 ], [ %11, %7 ]
  %.01314.i = phi i32 [ %18, %17 ], [ 1, %7 ]
  %.not.i49 = icmp eq i32 %.01314.i, 0
  br i1 %.not.i49, label %17, label %12

12:                                               ; preds = %.lr.ph.i
  %13 = load ptr, ptr %.01215.i, align 8, !tbaa !111
  %14 = tail call i32 %13(ptr noundef %1, ptr noundef %0, ptr noundef %3) #6
  %15 = icmp ne i32 %14, 0
  %16 = zext i1 %15 to i32
  br label %17

17:                                               ; preds = %12, %.lr.ph.i
  %18 = phi i32 [ 0, %.lr.ph.i ], [ %16, %12 ]
  %19 = getelementptr inbounds nuw i8, ptr %.01215.i, i64 8
  %20 = add nuw i32 %.016.i, 1
  %exitcond.not.i = icmp eq i32 %20, %10
  br i1 %exitcond.not.i, label %opj_jp2_exec.exit, label %.lr.ph.i, !llvm.loop !112

opj_jp2_exec.exit:                                ; preds = %17
  tail call void @opj_procedure_list_clear(ptr noundef %9) #6
  %.not44 = icmp eq i32 %18, 0
  br i1 %.not44, label %68, label %21

21:                                               ; preds = %opj_jp2_exec.exit.thread, %opj_jp2_exec.exit
  %22 = load ptr, ptr %5, align 8, !tbaa !110
  %23 = tail call i32 @opj_procedure_list_get_nb_procedures(ptr noundef %22) #6
  %24 = tail call ptr @opj_procedure_list_get_first_procedure(ptr noundef %22) #6
  %.not17.i50 = icmp eq i32 %23, 0
  br i1 %.not17.i50, label %opj_jp2_exec.exit58.thread, label %.lr.ph.i51

opj_jp2_exec.exit58.thread:                       ; preds = %21
  tail call void @opj_procedure_list_clear(ptr noundef %22) #6
  br label %34

.lr.ph.i51:                                       ; preds = %21, %30
  %.016.i52 = phi i32 [ %33, %30 ], [ 0, %21 ]
  %.01215.i53 = phi ptr [ %32, %30 ], [ %24, %21 ]
  %.01314.i54 = phi i32 [ %31, %30 ], [ 1, %21 ]
  %.not.i55 = icmp eq i32 %.01314.i54, 0
  br i1 %.not.i55, label %30, label %25

25:                                               ; preds = %.lr.ph.i51
  %26 = load ptr, ptr %.01215.i53, align 8, !tbaa !111
  %27 = tail call i32 %26(ptr noundef %1, ptr noundef %0, ptr noundef %3) #6
  %28 = icmp ne i32 %27, 0
  %29 = zext i1 %28 to i32
  br label %30

30:                                               ; preds = %25, %.lr.ph.i51
  %31 = phi i32 [ 0, %.lr.ph.i51 ], [ %29, %25 ]
  %32 = getelementptr inbounds nuw i8, ptr %.01215.i53, i64 8
  %33 = add nuw i32 %.016.i52, 1
  %exitcond.not.i56 = icmp eq i32 %33, %23
  br i1 %exitcond.not.i56, label %opj_jp2_exec.exit58, label %.lr.ph.i51, !llvm.loop !112

opj_jp2_exec.exit58:                              ; preds = %30
  tail call void @opj_procedure_list_clear(ptr noundef %22) #6
  %.not45 = icmp eq i32 %31, 0
  br i1 %.not45, label %68, label %34

34:                                               ; preds = %opj_jp2_exec.exit58.thread, %opj_jp2_exec.exit58
  %35 = getelementptr inbounds nuw i8, ptr %1, i64 172
  %36 = load i8, ptr %35, align 4, !tbaa !114
  %37 = icmp eq i8 %36, 0
  br i1 %37, label %38, label %40

38:                                               ; preds = %34
  %39 = tail call i32 (ptr, i32, ptr, ...) @opj_event_msg(ptr noundef %3, i32 noundef 1, ptr noundef nonnull @.str.8) #6
  br label %68

40:                                               ; preds = %34
  %41 = getelementptr inbounds nuw i8, ptr %1, i64 173
  %42 = load i8, ptr %41, align 1, !tbaa !115
  %43 = icmp eq i8 %42, 0
  br i1 %43, label %44, label %46

44:                                               ; preds = %40
  %45 = tail call i32 (ptr, i32, ptr, ...) @opj_event_msg(ptr noundef %3, i32 noundef 1, ptr noundef nonnull @.str.9) #6
  br label %68

46:                                               ; preds = %40
  %47 = load ptr, ptr %1, align 8, !tbaa !3
  %48 = tail call i32 @opj_j2k_read_header(ptr noundef %0, ptr noundef %47, ptr noundef %2, ptr noundef %3) #6
  %.not46 = icmp eq ptr %2, null
  br i1 %.not46, label %68, label %49

49:                                               ; preds = %46
  %50 = load ptr, ptr %2, align 8, !tbaa !116
  %.not47 = icmp eq ptr %50, null
  br i1 %.not47, label %68, label %51

51:                                               ; preds = %49
  %52 = getelementptr inbounds nuw i8, ptr %1, i64 60
  %53 = load i32, ptr %52, align 4, !tbaa !101
  %54 = getelementptr inbounds nuw i8, ptr %50, i64 20
  switch i32 %53, label %59 [
    i32 16, label %60
    i32 17, label %55
    i32 18, label %56
    i32 24, label %57
    i32 12, label %58
  ]

55:                                               ; preds = %51
  br label %60

56:                                               ; preds = %51
  br label %60

57:                                               ; preds = %51
  br label %60

58:                                               ; preds = %51
  br label %60

59:                                               ; preds = %51
  br label %60

60:                                               ; preds = %51, %55, %57, %59, %58, %56
  %.sink = phi i32 [ 2, %55 ], [ 4, %57 ], [ -1, %59 ], [ 5, %58 ], [ 3, %56 ], [ 1, %51 ]
  store i32 %.sink, ptr %54, align 4, !tbaa !100
  %61 = getelementptr inbounds nuw i8, ptr %1, i64 128
  %62 = load ptr, ptr %61, align 8, !tbaa !118
  %.not48 = icmp eq ptr %62, null
  br i1 %.not48, label %68, label %63

63:                                               ; preds = %60
  %64 = getelementptr inbounds nuw i8, ptr %50, i64 32
  store ptr %62, ptr %64, align 8, !tbaa !119
  %65 = getelementptr inbounds nuw i8, ptr %1, i64 136
  %66 = load i32, ptr %65, align 8, !tbaa !120
  %67 = getelementptr inbounds nuw i8, ptr %50, i64 40
  store i32 %66, ptr %67, align 8, !tbaa !98
  store ptr null, ptr %61, align 8, !tbaa !118
  br label %68

68:                                               ; preds = %46, %49, %63, %60, %opj_jp2_exec.exit58, %opj_jp2_exec.exit, %4, %44, %38
  %.0 = phi i32 [ 0, %38 ], [ 0, %44 ], [ 0, %4 ], [ 0, %opj_jp2_exec.exit ], [ 0, %opj_jp2_exec.exit58 ], [ %48, %60 ], [ %48, %63 ], [ %48, %49 ], [ %48, %46 ]
  ret i32 %.0
}